target datalayout = "e-m:e-p270:32:32-p271:32:32-p272:64:64-i64:64-i128:128-f80:128-n8:16:32:64-S128"
target triple = "x86_64-pc-linux-gnu"

%struct.SDL_AudioStream = type { ptr, i32, ptr, ptr, ptr, ptr, %struct.SDL_AudioSpec, %struct.SDL_AudioSpec, ptr, ptr, float, float, ptr, %struct.SDL_AudioSpec, ptr, [8 x i32], i64, ptr, i64, i8, ptr, ptr, ptr, ptr, ptr }
%struct.SDL_AudioSpec = type { i32, i32, i32 }

@.str = private unnamed_addr constant [26 x i8] c"Parameter '%s' is invalid\00", align 1
@.str.1 = private unnamed_addr constant [7 x i8] c"stream\00", align 1

; Function Attrs: nounwind uwtable
define hidden float @SDL_GetAudioStreamFrequencyRatio_REAL(ptr noundef %0) #0 {
  %2 = alloca float, align 4
  %3 = alloca ptr, align 8
  %4 = alloca float, align 4
  store ptr %0, ptr %3, align 8
  %5 = load ptr, ptr %3, align 8
  %6 = icmp ne ptr %5, null
  br i1 %6, label %9, label %7

7:                                                ; preds = %1
  %8 = call zeroext i1 (ptr, ...) @SDL_SetError_REAL(ptr noundef @.str, ptr noundef @.str.1)
  store float 0.000000e+00, ptr %2, align 4
  br label %20

9:                                                ; preds = %1
  %10 = load ptr, ptr %3, align 8
  %11 = getelementptr inbounds nuw %struct.SDL_AudioStream, ptr %10, i32 0, i32 0
  %12 = load ptr, ptr %11, align 8
  call void @SDL_LockMutex_REAL(ptr noundef %12)
  call void @llvm.lifetime.start.p0(i64 4, ptr %4) #7
  %13 = load ptr, ptr %3, align 8
  %14 = getelementptr inbounds nuw %struct.SDL_AudioStream, ptr %13, i32 0, i32 10
  %15 = load float, ptr %14, align 8
  store float %15, ptr %4, align 4
  %16 = load ptr, ptr %3, align 8
  %17 = getelementptr inbounds nuw %struct.SDL_AudioStream, ptr %16, i32 0, i32 0
  %18 = load ptr, ptr %17, align 8
  call void @SDL_UnlockMutex_REAL(ptr noundef %18)
  %19 = load float, ptr %4, align 4
  store float %19, ptr %2, align 4
  call void @llvm.lifetime.end.p0(i64 4, ptr %4) #7
  br label %20

20:                                               ; preds = %9, %7
  %21 = load float, ptr %2, align 4
  ret float %21
}